Certificate:
    Data:
        Version: 3 (0x2)
        Serial Number: 327371801 (0x13834c19)
        Signature Algorithm: sha256WithRSAEncryption
        Issuer: C=US, ST=California, L=San Francisco, O=Twitch, OU=Twitch Developer Rig, CN=Twitch Developer Rig CA/emailAddress=twitchdev@twitch.tv
        Validity
            Not Before: Oct  3 21:55:26 2018 GMT
            Not After : Jul 17 21:55:26 2292 GMT
        Subject: C=US, ST=California, L=San Francisco, O=Twitch, OU=Twitch Developer Rig, CN=Twitch Developer Rig
        Subject Public Key Info:
            Public Key Algorithm: rsaEncryption
            RSA Public Key: (2048 bit)
                Modulus (2048 bit):
                    00:b9:9b:84:5e:11:7a:af:80:22:c9:54:e5:53:38:
                    19:21:d7:87:bc:99:f2:f2:7f:ad:fc:ac:ee:24:4a:
                    f7:de:11:94:9b:ef:9f:c3:c7:8c:b9:8a:55:6e:cb:
                    93:89:38:a5:54:60:d2:c2:69:47:17:3c:5d:2e:63:
                    5d:ea:d2:71:4e:72:8d:8e:d4:6b:5a:34:58:86:d5:
                    17:9c:52:df:d0:2f:bc:0e:3e:62:3a:e5:6e:2b:d2:
                    e3:72:79:39:91:8e:71:32:e0:81:38:96:f5:40:64:
                    20:2e:07:50:39:7c:63:12:3a:b2:85:15:93:44:a2:
                    76:d3:6b:b3:39:84:e0:c9:8b:fb:31:f6:44:4e:9f:
                    4c:16:ff:ab:6c:b0:d7:41:af:97:61:e7:ae:4e:36:
                    c2:64:a2:a4:e8:3d:61:40:8e:6f:8e:ba:d6:fc:c0:
                    e1:3b:d3:17:65:f8:e1:aa:21:54:66:37:1a:3e:f1:
                    d4:25:8f:85:4e:44:54:d4:19:74:6b:0b:1f:78:36:
                    26:cc:55:f2:c0:be:07:2c:b4:4c:8a:d3:32:ee:b0:
                    d3:49:9b:b6:cb:21:a2:e1:da:fb:1a:20:15:b9:cd:
                    86:59:6f:48:f4:0f:18:60:0d:70:91:8a:6d:3f:7b:
                    24:19:b7:3e:96:68:2a:ac:d1:31:55:ef:a4:5e:68:
                    54:e1
                Exponent: 65537 (0x10001)
        X509v3 extensions:
            X509v3 Subject Key Identifier: 
                32:78:18:57:1F:73:33:85:3E:AF:E1:D7:8C:CA:A3:49:08:09:AE:F2
            X509v3 Authority Key Identifier: 
                keyid:DA:82:86:03:08:6A:67:99:14:DE:A0:B7:9F:12:AB:2B:4F:96:BD:C1

            X509v3 Basic Constraints: 
                CA:FALSE
            X509v3 Key Usage: 
                Digital Signature, Key Encipherment
            X509v3 Subject Alternative Name: 
                IP Address:127.0.0.1, IP Address:0:0:0:0:0:0:0:1, DNS:localhost.rig.twitch.tv, DNS:localhost
            Netscape Comment: 
                OpenSSL Generated Certificate
    Signature Algorithm: sha256WithRSAEncryption
        2e:2f:e0:dc:f7:0d:6d:70:13:54:66:e7:22:ff:46:77:a2:95:
        50:24:66:29:15:66:02:64:06:ad:65:3a:ee:aa:21:9d:22:cc:
        6a:8f:88:c8:1f:f4:e3:a3:90:c5:a2:e5:c7:f8:6c:0d:2c:09:
        d2:84:db:a3:76:8d:37:e9:73:9c:cf:ef:f9:61:6c:ab:e8:70:
        3d:a9:ea:e8:36:f6:7a:9b:34:80:1c:95:3a:03:6e:85:1b:6e:
        53:d6:37:c2:58:28:20:a7:bf:fb:5e:ba:fe:84:92:bc:f2:19:
        82:7f:ed:6c:cd:b0:54:32:69:e8:73:06:a0:1d:66:29:9d:b4:
        ec:cc:fc:03:3a:46:17:a1:53:5b:ad:7c:e8:64:b5:60:54:72:
        16:8c:3a:f9:21:9e:74:ff:72:68:52:be:bc:02:b0:20:d0:f2:
        cc:92:5c:e4:b3:f4:e4:a8:39:f6:1f:27:6a:64:92:60:b5:f7:
        f5:b5:31:62:35:f2:6e:41:57:d1:55:b9:eb:d0:45:98:d5:06:
        73:18:5a:62:92:e7:28:c5:52:92:7d:93:69:1a:d8:e5:38:bb:
        cc:59:a5:9d:12:d4:dd:00:94:05:93:59:08:c1:0b:1f:4f:07:
        0f:52:a3:a8:88:3d:57:00:20:ac:fb:87:33:36:7a:22:ff:d6:
        c1:8e:45:2d:00:7e:e6:d8:ef:aa:1d:ea:dc:d0:78:08:f3:68:
        ef:c2:7e:94:3d:85:3f:a1:46:4e:44:2b:c6:6e:9f:9b:fb:1e:
        02:70:67:bf:53:97:03:2e:a0:46:13:46:3b:58:dc:c6:4f:3d:
        b0:a2:93:2d:68:18:42:d2:9f:54:7c:73:04:1e:94:bc:74:ec:
        01:95:7f:9c:9c:e5:f3:e1:0d:bf:b9:3d:91:4a:59:30:05:89:
        50:32:72:56:62:0c:a2:e7:8b:d0:24:2a:94:65:4f:ab:7a:1e:
        da:01:c4:e5:bf:6a:89:40:c2:11:3c:43:19:e5:7a:ea:be:2d:
        6a:4f:e2:fe:70:80:92:94:d5:d4:b5:df:cf:b7:de:97:c6:67:
        7c:15:45:fd:3c:d0:fa:87:86:91:54:c7:05:54:5f:42:f7:dc:
        06:11:dd:5b:0e:38:82:a3:94:5f:1a:26:4f:d4:15:40:7b:49:
        23:90:97:a4:27:45:9f:13:7e:a3:91:1c:72:f1:5b:25:16:b7:
        4d:ef:61:2a:92:c9:91:68:cd:1e:d7:bd:b4:ed:d2:74:4f:60:
        b5:b6:60:98:e2:9d:7d:c5:d3:11:0f:94:21:b1:36:69:2f:60:
        8b:2e:06:9f:13:ab:c8:75:26:be:2f:11:b6:59:b2:53:d9:ad:
        69:a0:25:6c:79:0c:1c:87
-----BEGIN CERTIFICATE-----
MIIFjDCCA3SgAwIBAgIEE4NMGTANBgkqhkiG9w0BAQsFADCBsDELMAkGA1UEBhMC
VVMxEzARBgNVBAgMCkNhbGlmb3JuaWExFjAUBgNVBAcMDVNhbiBGcmFuY2lzY28x
DzANBgNVBAoMBlR3aXRjaDEdMBsGA1UECwwUVHdpdGNoIERldmVsb3BlciBSaWcx
IDAeBgNVBAMMF1R3aXRjaCBEZXZlbG9wZXIgUmlnIENBMSIwIAYJKoZIhvcNAQkB
FhN0d2l0Y2hkZXZAdHdpdGNoLnR2MCAXDTE4MTAwMzIxNTUyNloYDzIyOTIwNzE3
MjE1NTI2WjCBiTELMAkGA1UEBhMCVVMxEzARBgNVBAgMCkNhbGlmb3JuaWExFjAU
BgNVBAcMDVNhbiBGcmFuY2lzY28xDzANBgNVBAoMBlR3aXRjaDEdMBsGA1UECwwU
VHdpdGNoIERldmVsb3BlciBSaWcxHTAbBgNVBAMMFFR3aXRjaCBEZXZlbG9wZXIg
UmlnMIIBIjANBgkqhkiG9w0BAQEFAAOCAQ8AMIIBCgKCAQEAuZuEXhF6r4AiyVTl
UzgZIdeHvJny8n+t/KzuJEr33hGUm++fw8eMuYpVbsuTiTilVGDSwmlHFzxdLmNd
6tJxTnKNjtRrWjRYhtUXnFLf0C+8Dj5iOuVuK9Ljcnk5kY5xMuCBOJb1QGQgLgdQ
OXxjEjqyhRWTRKJ202uzOYTgyYv7MfZETp9MFv+rbLDXQa+XYeeuTjbCZKKk6D1h
QI5vjrrW/MDhO9MXZfjhqiFUZjcaPvHUJY+FTkRU1Bl0awsfeDYmzFXywL4HLLRM
itMy7rDTSZu2yyGi4dr7GiAVuc2GWW9I9A8YYA1wkYptP3skGbc+lmgqrNExVe+k
XmhU4QIDAQABo4HQMIHNMB0GA1UdDgQWBBQyeBhXH3MzhT6v4deMyqNJCAmu8jAf
BgNVHSMEGDAWgBTagoYDCGpnmRTeoLefEqsrT5a9wTAJBgNVHRMEAjAAMAsGA1Ud
DwQEAwIFoDBFBgNVHREEPjA8hwR/AAABhxAAAAAAAAAAAAAAAAAAAAABghdsb2Nh
bGhvc3QucmlnLnR3aXRjaC50doIJbG9jYWxob3N0MCwGCWCGSAGG+EIBDQQfFh1P
cGVuU1NMIEdlbmVyYXRlZCBDZXJ0aWZpY2F0ZTANBgkqhkiG9w0BAQsFAAOCAgEA
Li/g3PcNbXATVGbnIv9Gd6KVUCRmKRVmAmQGrWU67qohnSLMao+IyB/046OQxaLl
x/hsDSwJ0oTbo3aNN+lznM/v+WFsq+hwPanq6Db2eps0gByVOgNuhRtuU9Y3wlgo
IKe/+166/oSSvPIZgn/tbM2wVDJp6HMGoB1mKZ207Mz8AzpGF6FTW6186GS1YFRy
Fow6+SGedP9yaFK+vAKwINDyzJJc5LP05Kg59h8namSSYLX39bUxYjXybkFX0VW5
69BFmNUGcxhaYpLnKMVSkn2TaRrY5Ti7zFmlnRLU3QCUBZNZCMELH08HD1KjqIg9
VwAgrPuHMzZ6Iv/WwY5FLQB+5tjvqh3q3NB4CPNo78J+lD2FP6FGTkQrxm6fm/se
AnBnv1OXAy6gRhNGO1jcxk89sKKTLWgYQtKfVHxzBB6UvHTsAZV/nJzl8+ENv7k9
kUpZMAWJUDJyVmIMoueL0CQqlGVPq3oe2gHE5b9qiUDCETxDGeV66r4tak/i/nCA
kpTV1LXfz7fel8ZnfBVF/TzQ+oeGkVTHBVRfQvfcBhHdWw44gqOUXxomT9QVQHtJ
I5CXpCdFnxN+o5EccvFbJRa3Te9hKpLJkWjNHte9tO3SdE9gtbZgmOKdfcXTEQ+U
IbE2aS9giy4GnxOryHUmvi8RtlmyU9mtaaAlbHkMHIc=
-----END CERTIFICATE-----
